; ModuleID = 'source-C-CXX/55/2860.c'
source_filename = "source-C-CXX/55/2860.c"
target datalayout = "e-m:e-p270:32:32-p271:32:32-p272:64:64-i64:64-f80:128-n8:16:32:64-S128"
target triple = "x86_64-pc-linux-gnu"

@.str = private unnamed_addr constant [3 x i8] c"%d\00", align 1

; Function Attrs: nofree nounwind sspstrong uwtable
define dso_local i32 @main() local_unnamed_addr #0 {
  %1 = alloca i32, align 4
  %2 = bitcast i32* %1 to i8*
  call void @llvm.lifetime.start.p0i8(i64 4, i8* nonnull %2) #3
  %3 = call i32 (i8*, ...) @__isoc99_scanf(i8* getelementptr inbounds ([3 x i8], [3 x i8]* @.str, i64 0, i64 0), i32* nonnull %1)
  %4 = load i32, i32* %1, align 4, !tbaa !5
  %5 = sdiv i32 %4, 10000
  %6 = mul nsw i32 %5, -10000
  %7 = add i32 %6, %4
  %8 = sdiv i32 %7, 1000
  %9 = mul nsw i32 %8, -1000
  %10 = add i32 %9, %7
  %11 = sdiv i32 %10, 100
  %12 = mul nsw i32 %11, 100
  %13 = srem i32 %10, 100
  %14 = sdiv i32 %13, 10
  %15 = add i32 %4, 9999
  %16 = icmp ult i32 %15, 19999
  br i1 %16, label %23, label %17

17:                                               ; preds = %0
  %18 = mul nsw i32 %14, 1000
  %19 = mul nsw i32 %8, 10
  %20 = add nsw i32 %19, %5
  %21 = add i32 %20, %12
  %22 = add i32 %21, %18
  store i32 %22, i32* %1, align 4, !tbaa !5
  br label %37

23:                                               ; preds = %0
  %24 = add i32 %7, 999
  %25 = icmp ult i32 %24, 1999
  br i1 %25, label %31, label %26

26:                                               ; preds = %23
  %27 = mul nsw i32 %14, 100
  %28 = mul nsw i32 %11, 10
  %29 = add nsw i32 %28, %8
  %30 = add i32 %29, %27
  store i32 %30, i32* %1, align 4, !tbaa !5
  br label %37

31:                                               ; preds = %23
  %32 = add i32 %10, 99
  %33 = icmp ult i32 %32, 199
  br i1 %33, label %37, label %34

34:                                               ; preds = %31
  %35 = mul nsw i32 %14, 10
  %36 = add nsw i32 %35, %11
  store i32 %36, i32* %1, align 4, !tbaa !5
  br label %37

37:                                               ; preds = %31, %26, %34, %17
  %38 = phi i32 [ %4, %31 ], [ %30, %26 ], [ %36, %34 ], [ %22, %17 ]
  %39 = call i32 (i8*, ...) @printf(i8* nonnull dereferenceable(1) getelementptr inbounds ([3 x i8], [3 x i8]* @.str, i64 0, i64 0), i32 %38)
  call void @llvm.lifetime.end.p0i8(i64 4, i8* nonnull %2) #3
  ret i32 0
}

; Function Attrs: argmemonly mustprogress nofree nosync nounwind willreturn
declare void @llvm.lifetime.start.p0i8(i64 immarg, i8* nocapture) #1

; Function Attrs: nofree nounwind
declare noundef i32 @__isoc99_scanf(i8* nocapture noundef readonly, ...) local_unnamed_addr #2

; Function Attrs: nofree nounwind
declare noundef i32 @printf(i8* nocapture noundef readonly, ...) local_unnamed_addr #2

; Function Attrs: argmemonly mustprogress nofree nosync nounwind willreturn
declare void @llvm.lifetime.end.p0i8(i64 immarg, i8* nocapture) #1


!llvm.module.flags = !{!0, !1, !2, !3}
!llvm.ident = !{!4}

!0 = !{i32 1, !"wchar_size", i32 4}
!1 = !{i32 7, !"PIC Level", i32 2}
!2 = !{i32 7, !"PIE Level", i32 2}
!3 = !{i32 7, !"uwtable", i32 1}
!4 = !{!"clang version 13.0.0"}
!5 = !{!6, !6, i64 0}
!6 = !{!"int", !7, i64 0}
!7 = !{!"omnipotent char", !8, i64 0}
!8 = !{!"Simple C/C++ TBAA"}
